; ModuleID = '45/1569.c'
source_filename = "45/1569.c"
target datalayout = "e-m:e-p270:32:32-p271:32:32-p272:64:64-i64:64-f80:128-n8:16:32:64-S128"
target triple = "x86_64-pc-linux-gnu"

@.str = private unnamed_addr constant [5 x i8] c"%s%s\00", align 1
@.str.1 = private unnamed_addr constant [3 x i8] c"%d\00", align 1

; Function Attrs: noinline nounwind uwtable
define dso_local i32 @main() #0 {
  %1 = alloca i32, align 4
  %2 = alloca [100 x i8], align 16
  %3 = alloca [100 x i8], align 16
  %4 = alloca i32, align 4
  %5 = alloca i32, align 4
  %6 = alloca i32, align 4
  %7 = alloca i32, align 4
  store i32 0, i32* %1, align 4
  %8 = getelementptr inbounds [100 x i8], [100 x i8]* %2, i64 0, i64 0
  %9 = getelementptr inbounds [100 x i8], [100 x i8]* %3, i64 0, i64 0
  %10 = call i32 (i8*, ...) @__isoc99_scanf(i8* getelementptr inbounds ([5 x i8], [5 x i8]* @.str, i64 0, i64 0), i8* %8, i8* %9)
  %11 = getelementptr inbounds [100 x i8], [100 x i8]* %2, i64 0, i64 0
  %12 = call i64 @strlen(i8* %11) #3
  %13 = trunc i64 %12 to i32
  store i32 %13, i32* %4, align 4
  %14 = getelementptr inbounds [100 x i8], [100 x i8]* %3, i64 0, i64 0
  %15 = call i64 @strlen(i8* %14) #3
  %16 = trunc i64 %15 to i32
  store i32 %16, i32* %5, align 4
  store i32 0, i32* %6, align 4
  br label %17

17:                                               ; preds = %62, %0
  %18 = load i32, i32* %6, align 4
  %19 = load i32, i32* %5, align 4
  %20 = load i32, i32* %4, align 4
  %21 = sub nsw i32 %19, %20
  %22 = icmp sle i32 %18, %21
  br i1 %22, label %23, label %65

23:                                               ; preds = %17
  %24 = load i32, i32* %6, align 4
  store i32 %24, i32* %7, align 4
  br label %25

25:                                               ; preds = %48, %23
  %26 = load i32, i32* %7, align 4
  %27 = load i32, i32* %6, align 4
  %28 = load i32, i32* %4, align 4
  %29 = add nsw i32 %27, %28
  %30 = sub nsw i32 %29, 1
  %31 = icmp slt i32 %26, %30
  br i1 %31, label %32, label %51

32:                                               ; preds = %25
  %33 = load i32, i32* %7, align 4
  %34 = sext i32 %33 to i64
  %35 = getelementptr inbounds [100 x i8], [100 x i8]* %3, i64 0, i64 %34
  %36 = load i8, i8* %35, align 1
  %37 = sext i8 %36 to i32
  %38 = load i32, i32* %7, align 4
  %39 = load i32, i32* %6, align 4
  %40 = sub nsw i32 %38, %39
  %41 = sext i32 %40 to i64
  %42 = getelementptr inbounds [100 x i8], [100 x i8]* %2, i64 0, i64 %41
  %43 = load i8, i8* %42, align 1
  %44 = sext i8 %43 to i32
  %45 = icmp eq i32 %37, %44
  br i1 %45, label %46, label %47

46:                                               ; preds = %32
  br label %48

47:                                               ; preds = %32
  br label %51

48:                                               ; preds = %46
  %49 = load i32, i32* %7, align 4
  %50 = add nsw i32 %49, 1
  store i32 %50, i32* %7, align 4
  br label %25

51:                                               ; preds = %47, %25
  %52 = load i32, i32* %7, align 4
  %53 = load i32, i32* %6, align 4
  %54 = load i32, i32* %4, align 4
  %55 = add nsw i32 %53, %54
  %56 = sub nsw i32 %55, 1
  %57 = icmp eq i32 %52, %56
  br i1 %57, label %58, label %61

58:                                               ; preds = %51
  %59 = load i32, i32* %6, align 4
  %60 = call i32 (i8*, ...) @printf(i8* getelementptr inbounds ([3 x i8], [3 x i8]* @.str.1, i64 0, i64 0), i32 %59)
  br label %65

61:                                               ; preds = %51
  br label %62

62:                                               ; preds = %61
  %63 = load i32, i32* %6, align 4
  %64 = add nsw i32 %63, 1
  store i32 %64, i32* %6, align 4
  br label %17

65:                                               ; preds = %58, %17
  ret i32 0
}

declare dso_local i32 @__isoc99_scanf(i8*, ...) #1

; Function Attrs: nounwind readonly
declare dso_local i64 @strlen(i8*) #2

declare dso_local i32 @printf(i8*, ...) #1


!llvm.module.flags = !{!0}
!llvm.ident = !{!1}

!0 = !{i32 1, !"wchar_size", i32 4}
!1 = !{!"clang version 10.0.0-4ubuntu1 "}
