; ModuleID = 'source-C-CXX/44/1569.c'
source_filename = "source-C-CXX/44/1569.c"
target datalayout = "e-m:e-p270:32:32-p271:32:32-p272:64:64-i64:64-f80:128-n8:16:32:64-S128"
target triple = "x86_64-pc-linux-gnu"

@.str = private unnamed_addr constant [5 x i8] c"%s%s\00", align 1
@.str.1 = private unnamed_addr constant [3 x i8] c"%d\00", align 1

; Function Attrs: nofree nounwind sspstrong uwtable
define dso_local i32 @main() local_unnamed_addr #0 {
  %1 = alloca [100 x i8], align 16
  %2 = alloca [100 x i8], align 16
  %3 = getelementptr inbounds [100 x i8], [100 x i8]* %1, i64 0, i64 0
  call void @llvm.lifetime.start.p0i8(i64 100, i8* nonnull %3) #4
  %4 = getelementptr inbounds [100 x i8], [100 x i8]* %2, i64 0, i64 0
  call void @llvm.lifetime.start.p0i8(i64 100, i8* nonnull %4) #4
  %5 = call i32 (i8*, ...) @__isoc99_scanf(i8* getelementptr inbounds ([5 x i8], [5 x i8]* @.str, i64 0, i64 0), i8* nonnull %3, i8* nonnull %4)
  %6 = call i64 @strlen(i8* noundef nonnull %3) #5
  %7 = trunc i64 %6 to i32
  %8 = call i64 @strlen(i8* noundef nonnull %4) #5
  %9 = trunc i64 %8 to i32
  %10 = add i32 %7, -1
  %11 = icmp slt i32 %9, %7
  br i1 %11, label %48, label %12

12:                                               ; preds = %0
  %13 = add i64 %8, 1
  %14 = sub i64 %13, %6
  %15 = and i64 %14, 4294967295
  br label %16

16:                                               ; preds = %12, %44
  %17 = phi i32 [ %10, %12 ], [ %46, %44 ]
  %18 = phi i64 [ 0, %12 ], [ %45, %44 ]
  %19 = trunc i64 %18 to i32
  %20 = add i32 %10, %19
  %21 = sext i32 %20 to i64
  %22 = icmp slt i64 %18, %21
  br i1 %22, label %23, label %38

23:                                               ; preds = %16
  %24 = zext i32 %17 to i64
  br label %25

25:                                               ; preds = %23, %33
  %26 = phi i64 [ %18, %23 ], [ %34, %33 ]
  %27 = getelementptr inbounds [100 x i8], [100 x i8]* %2, i64 0, i64 %26
  %28 = load i8, i8* %27, align 1, !tbaa !5
  %29 = sub nuw nsw i64 %26, %18
  %30 = getelementptr inbounds [100 x i8], [100 x i8]* %1, i64 0, i64 %29
  %31 = load i8, i8* %30, align 1, !tbaa !5
  %32 = icmp eq i8 %28, %31
  br i1 %32, label %33, label %36

33:                                               ; preds = %25
  %34 = add nuw nsw i64 %26, 1
  %35 = icmp eq i64 %34, %24
  br i1 %35, label %38, label %25, !llvm.loop !8

36:                                               ; preds = %25
  %37 = trunc i64 %26 to i32
  br label %38

38:                                               ; preds = %33, %36, %16
  %39 = phi i32 [ %19, %16 ], [ %37, %36 ], [ %17, %33 ]
  %40 = icmp eq i32 %39, %20
  br i1 %40, label %41, label %44

41:                                               ; preds = %38
  %42 = trunc i64 %18 to i32
  %43 = call i32 (i8*, ...) @printf(i8* nonnull dereferenceable(1) getelementptr inbounds ([3 x i8], [3 x i8]* @.str.1, i64 0, i64 0), i32 %42)
  br label %48

44:                                               ; preds = %38
  %45 = add nuw nsw i64 %18, 1
  %46 = add i32 %17, 1
  %47 = icmp eq i64 %45, %15
  br i1 %47, label %48, label %16, !llvm.loop !10

48:                                               ; preds = %44, %0, %41
  call void @llvm.lifetime.end.p0i8(i64 100, i8* nonnull %4) #4
  call void @llvm.lifetime.end.p0i8(i64 100, i8* nonnull %3) #4
  ret i32 0
}

; Function Attrs: argmemonly mustprogress nofree nosync nounwind willreturn
declare void @llvm.lifetime.start.p0i8(i64 immarg, i8* nocapture) #1

; Function Attrs: nofree nounwind
declare noundef i32 @__isoc99_scanf(i8* nocapture noundef readonly, ...) local_unnamed_addr #2

; Function Attrs: argmemonly mustprogress nofree nounwind readonly willreturn
declare i64 @strlen(i8* nocapture) local_unnamed_addr #3

; Function Attrs: nofree nounwind
declare noundef i32 @printf(i8* nocapture noundef readonly, ...) local_unnamed_addr #2

; Function Attrs: argmemonly mustprogress nofree nosync nounwind willreturn
declare void @llvm.lifetime.end.p0i8(i64 immarg, i8* nocapture) #1


!llvm.module.flags = !{!0, !1, !2, !3}
!llvm.ident = !{!4}

!0 = !{i32 1, !"wchar_size", i32 4}
!1 = !{i32 7, !"PIC Level", i32 2}
!2 = !{i32 7, !"PIE Level", i32 2}
!3 = !{i32 7, !"uwtable", i32 1}
!4 = !{!"clang version 13.0.0"}
!5 = !{!6, !6, i64 0}
!6 = !{!"omnipotent char", !7, i64 0}
!7 = !{!"Simple C/C++ TBAA"}
!8 = distinct !{!8, !9}
!9 = !{!"llvm.loop.mustprogress"}
!10 = distinct !{!10, !9}
